target datalayout = "e-m:e-p270:32:32-p271:32:32-p272:64:64-i64:64-i128:128-f80:128-n8:16:32:64-S128"
target triple = "x86_64-pc-linux-gnu"

@.str.22 = private unnamed_addr constant [7 x i8] c"always\00", align 1
@.str.23 = private unnamed_addr constant [6 x i8] c"small\00", align 1
@.str.24 = private unnamed_addr constant [4 x i8] c"VGA\00", align 1
@.str.25 = private unnamed_addr constant [5 x i8] c"720p\00", align 1
@.str.26 = private unnamed_addr constant [6 x i8] c"1080p\00", align 1
@.str.27 = private unnamed_addr constant [6 x i8] c"WQXGA\00", align 1
@.str.28 = private unnamed_addr constant [3 x i8] c"4K\00", align 1
@.str.29 = private unnamed_addr constant [3 x i8] c"5K\00", align 1

; Function Attrs: nounwind uwtable
define i32 @dt_mipmap_cache_get_min_mip_from_pref(ptr noundef %0) #0 {
  %2 = alloca i32, align 4
  %3 = alloca ptr, align 8
  store ptr %0, ptr %3, align 8, !tbaa !85
  %4 = load ptr, ptr %3, align 8, !tbaa !85
  %5 = call i32 @strcmp(ptr noundef %4, ptr noundef @.str.22) #13
  %6 = icmp eq i32 %5, 0
  br i1 %6, label %7, label %8

7:                                                ; preds = %1
  store i32 0, ptr %2, align 4
  br label %44

8:                                                ; preds = %1
  %9 = load ptr, ptr %3, align 8, !tbaa !85
  %10 = call i32 @strcmp(ptr noundef %9, ptr noundef @.str.23) #13
  %11 = icmp eq i32 %10, 0
  br i1 %11, label %12, label %13

12:                                               ; preds = %8
  store i32 1, ptr %2, align 4
  br label %44

13:                                               ; preds = %8
  %14 = load ptr, ptr %3, align 8, !tbaa !85
  %15 = call i32 @strcmp(ptr noundef %14, ptr noundef @.str.24) #13
  %16 = icmp eq i32 %15, 0
  br i1 %16, label %17, label %18

17:                                               ; preds = %13
  store i32 2, ptr %2, align 4
  br label %44

18:                                               ; preds = %13
  %19 = load ptr, ptr %3, align 8, !tbaa !85
  %20 = call i32 @strcmp(ptr noundef %19, ptr noundef @.str.25) #13
  %21 = icmp eq i32 %20, 0
  br i1 %21, label %22, label %23

22:                                               ; preds = %18
  store i32 3, ptr %2, align 4
  br label %44

23:                                               ; preds = %18
  %24 = load ptr, ptr %3, align 8, !tbaa !85
  %25 = call i32 @strcmp(ptr noundef %24, ptr noundef @.str.26) #13
  %26 = icmp eq i32 %25, 0
  br i1 %26, label %27, label %28

27:                                               ; preds = %23
  store i32 4, ptr %2, align 4
  br label %44

28:                                               ; preds = %23
  %29 = load ptr, ptr %3, align 8, !tbaa !85
  %30 = call i32 @strcmp(ptr noundef %29, ptr noundef @.str.27) #13
  %31 = icmp eq i32 %30, 0
  br i1 %31, label %32, label %33

32:                                               ; preds = %28
  store i32 5, ptr %2, align 4
  br label %44

33:                                               ; preds = %28
  %34 = load ptr, ptr %3, align 8, !tbaa !85
  %35 = call i32 @strcmp(ptr noundef %34, ptr noundef @.str.28) #13
  %36 = icmp eq i32 %35, 0
  br i1 %36, label %37, label %38

37:                                               ; preds = %33
  store i32 6, ptr %2, align 4
  br label %44

38:                                               ; preds = %33
  %39 = load ptr, ptr %3, align 8, !tbaa !85
  %40 = call i32 @strcmp(ptr noundef %39, ptr noundef @.str.29) #13
  %41 = icmp eq i32 %40, 0
  br i1 %41, label %42, label %43

42:                                               ; preds = %38
  store i32 7, ptr %2, align 4
  br label %44

43:                                               ; preds = %38
  store i32 11, ptr %2, align 4
  br label %44

44:                                               ; preds = %43, %42, %37, %32, %27, %22, %17, %12, %7
  %45 = load i32, ptr %2, align 4
  ret i32 %45
}