; Function Attrs: mustprogress nofree nounwind willreturn memory(argmem: read) uwtable
define range(i32 0, 12) i32 @dt_mipmap_cache_get_min_mip_from_pref(ptr noundef readonly captures(none) %0) local_unnamed_addr #9 {
  %2 = tail call i32 @strcmp(ptr noundef nonnull dereferenceable(1) %0, ptr noundef nonnull dereferenceable(7) @.str.22) #20
  %3 = icmp eq i32 %2, 0
  br i1 %3, label %.tail8, label %4

4:                                                ; preds = %1
  %5 = tail call i32 @strcmp(ptr noundef nonnull dereferenceable(1) %0, ptr noundef nonnull dereferenceable(6) @.str.23) #20
  %6 = icmp eq i32 %5, 0
  br i1 %6, label %.tail8, label %7

7:                                                ; preds = %4
  %8 = tail call i32 @strcmp(ptr noundef nonnull dereferenceable(1) %0, ptr noundef nonnull dereferenceable(4) @.str.24) #20
  %9 = icmp eq i32 %8, 0
  br i1 %9, label %.tail8, label %10

10:                                               ; preds = %7
  %11 = tail call i32 @strcmp(ptr noundef nonnull dereferenceable(1) %0, ptr noundef nonnull dereferenceable(5) @.str.25) #20
  %12 = icmp eq i32 %11, 0
  br i1 %12, label %.tail8, label %13

13:                                               ; preds = %10
  %14 = tail call i32 @strcmp(ptr noundef nonnull dereferenceable(1) %0, ptr noundef nonnull dereferenceable(6) @.str.26) #20
  %15 = icmp eq i32 %14, 0
  br i1 %15, label %.tail8, label %16

16:                                               ; preds = %13
  %17 = tail call i32 @strcmp(ptr noundef nonnull dereferenceable(1) %0, ptr noundef nonnull dereferenceable(6) @.str.27) #20
  %18 = icmp eq i32 %17, 0
  br i1 %18, label %.tail8, label %sub_0

sub_0:                                            ; preds = %16
  %19 = load i8, ptr %0, align 1
  switch i8 %19, label %.tail8 [
    i8 52, label %sub_1
    i8 53, label %sub_110
  ]

sub_1:                                            ; preds = %sub_0
  %20 = getelementptr inbounds nuw i8, ptr %0, i64 1
  %21 = load i8, ptr %20, align 1
  %.not13 = icmp eq i8 %21, 75
  br i1 %.not13, label %.tail8.sink.split, label %.tail8

sub_110:                                          ; preds = %sub_0
  %22 = getelementptr inbounds nuw i8, ptr %0, i64 1
  %23 = load i8, ptr %22, align 1
  %.not15 = icmp eq i8 %23, 75
  br i1 %.not15, label %.tail8.sink.split, label %.tail8

.tail8.sink.split:                                ; preds = %sub_110, %sub_1
  %.sink19 = phi i32 [ 6, %sub_1 ], [ 7, %sub_110 ]
  %24 = getelementptr inbounds nuw i8, ptr %0, i64 2
  %25 = load i8, ptr %24, align 1
  %26 = icmp eq i8 %25, 0
  %spec.select = select i1 %26, i32 %.sink19, i32 11
  br label %.tail8

.tail8:                                           ; preds = %.tail8.sink.split, %sub_0, %sub_1, %sub_110, %16, %13, %10, %7, %4, %1
  %.0 = phi i32 [ 0, %1 ], [ 1, %4 ], [ 2, %7 ], [ 3, %10 ], [ 4, %13 ], [ 5, %16 ], [ 11, %sub_110 ], [ 11, %sub_1 ], [ 11, %sub_0 ], [ %spec.select, %.tail8.sink.split ]
  ret i32 %.0
}